target datalayout = "e-m:e-p270:32:32-p271:32:32-p272:64:64-i64:64-i128:128-f80:128-n8:16:32:64-S128"
target triple = "x86_64-pc-linux-gnu"

; Function Attrs: nounwind uwtable
define hidden float @SDL_sRGBtoLinear(float noundef %0) #0 {
  %2 = alloca float, align 4
  store float %0, ptr %2, align 4
  %3 = load float, ptr %2, align 4
  %4 = fcmp ole float %3, 0x3FA4B5DCC0000000
  br i1 %4, label %5, label %8

5:                                                ; preds = %1
  %6 = load float, ptr %2, align 4
  %7 = fdiv float %6, 0x4029D70A40000000
  store float %7, ptr %2, align 4
  br label %13

8:                                                ; preds = %1
  %9 = load float, ptr %2, align 4
  %10 = fadd float %9, 0x3FAC28F5C0000000
  %11 = fdiv float %10, 0x3FF0E147A0000000
  %12 = call float @SDL_powf_REAL(float noundef %11, float noundef 0x4003333340000000)
  store float %12, ptr %2, align 4
  br label %13

13:                                               ; preds = %8, %5
  %14 = load float, ptr %2, align 4
  ret float %14
}