; Function Attrs: nounwind uwtable
define hidden float @SDL_sRGBtoLinear(float noundef %0) local_unnamed_addr #1 {
  %2 = fcmp ugt float %0, 0x3FA4B5DCC0000000
  br i1 %2, label %5, label %3

3:                                                ; preds = %1
  %4 = fdiv float %0, 0x4029D70A40000000
  br label %9

5:                                                ; preds = %1
  %6 = fadd float %0, 0x3FAC28F5C0000000
  %7 = fdiv float %6, 0x3FF0E147A0000000
  %8 = tail call float @SDL_powf_REAL(float noundef %7, float noundef 0x4003333340000000) #15
  br label %9

9:                                                ; preds = %5, %3
  %.0 = phi float [ %4, %3 ], [ %8, %5 ]
  ret float %.0
}